; Function Attrs: mustprogress nounwind uwtable
define dso_local noundef ptr @_ZNK4llvm17MachineBasicBlock18getSingleSuccessorEv(ptr noundef nonnull align 8 dereferenceable(288) %0) local_unnamed_addr #0 align 2 {
  %2 = getelementptr inbounds nuw i8, ptr %0, i64 112
  %3 = tail call noundef i64 @_ZNK4llvm15SmallVectorBaseIjE4sizeEv(ptr noundef nonnull align 8 dereferenceable(16) %2) #29
  %4 = icmp eq i64 %3, 1
  br i1 %4, label %5, label %8

5:                                                ; preds = %1
  %6 = load ptr, ptr %2, align 8
  %7 = load ptr, ptr %6, align 8
  br label %8

8:                                                ; preds = %1, %5
  %9 = phi ptr [ %7, %5 ], [ null, %1 ]
  ret ptr %9
}